target datalayout = "e-m:e-p270:32:32-p271:32:32-p272:64:64-i64:64-i128:128-f80:128-n8:16:32:64-S128"
target triple = "x86_64-pc-linux-gnu"

%class.mpz = type { i32, i8, ptr }
%class.mpbq = type <{ %class.mpz, i32, [4 x i8] }>
%class.mpbq_manager = type { ptr, %class.mpz, %class.mpz, %class.mpbq, %class.mpz, %class.mpz, %class.mpz, %class.mpbq, %class.mpbq, %class.mpz, %class.mpz, %class.mpz }

; Function Attrs: mustprogress nounwind uwtable
define linkonce_odr hidden noundef i32 @_ZN11mpz_managerILb0EE4signERK3mpz(ptr noundef nonnull align 8 dereferenceable(16) %0) #6 comdat align 2 {
  %2 = alloca ptr, align 8
  store ptr %0, ptr %2, align 8, !tbaa !10
  %3 = load ptr, ptr %2, align 8, !tbaa !10
  %4 = getelementptr inbounds nuw %class.mpz, ptr %3, i32 0, i32 0
  %5 = load i32, ptr %4, align 8, !tbaa !24
  ret i32 %5
}

; Function Attrs: mustprogress uwtable
define linkonce_odr hidden noundef zeroext i1 @_ZN11mpz_managerILb0EE7is_zeroERK3mpz(ptr noundef nonnull align 8 dereferenceable(16) %0) #4 comdat align 2 {
  %2 = alloca ptr, align 8
  store ptr %0, ptr %2, align 8, !tbaa !10
  %3 = load ptr, ptr %2, align 8, !tbaa !10
  %4 = call noundef i32 @_ZN11mpz_managerILb0EE4signERK3mpz(ptr noundef nonnull align 8 dereferenceable(16) %3)
  %5 = icmp eq i32 %4, 0
  ret i1 %5
}

; Function Attrs: mustprogress uwtable
define hidden void @_ZN12mpbq_manager9normalizeER4mpbq(ptr noundef nonnull align 8 dereferenceable(208) %0, ptr noundef nonnull align 8 dereferenceable(20) %1) #4 align 2 {
  %3 = alloca ptr, align 8
  %4 = alloca ptr, align 8
  %5 = alloca i32, align 4
  store ptr %0, ptr %3, align 8, !tbaa !20
  store ptr %1, ptr %4, align 8, !tbaa !3
  %6 = load ptr, ptr %3, align 8
  %7 = load ptr, ptr %4, align 8, !tbaa !3
  %8 = getelementptr inbounds nuw %class.mpbq, ptr %7, i32 0, i32 1
  %9 = load i32, ptr %8, align 8, !tbaa !14
  %10 = icmp eq i32 %9, 0
  br i1 %10, label %11, label %12

11:                                               ; preds = %2
  br label %45

12:                                               ; preds = %2
  %13 = load ptr, ptr %4, align 8, !tbaa !3
  %14 = getelementptr inbounds nuw %class.mpbq, ptr %13, i32 0, i32 0
  %15 = call noundef zeroext i1 @_ZN11mpz_managerILb0EE7is_zeroERK3mpz(ptr noundef nonnull align 8 dereferenceable(16) %14)
  br i1 %15, label %16, label %19

16:                                               ; preds = %12
  %17 = load ptr, ptr %4, align 8, !tbaa !3
  %18 = getelementptr inbounds nuw %class.mpbq, ptr %17, i32 0, i32 1
  store i32 0, ptr %18, align 8, !tbaa !14
  br label %45

19:                                               ; preds = %12
  call void @llvm.lifetime.start.p0(i64 4, ptr %5) #3
  %20 = getelementptr inbounds nuw %class.mpbq_manager, ptr %6, i32 0, i32 0
  %21 = load ptr, ptr %20, align 8, !tbaa !26
  %22 = load ptr, ptr %4, align 8, !tbaa !3
  %23 = getelementptr inbounds nuw %class.mpbq, ptr %22, i32 0, i32 0
  %24 = call noundef i32 @_ZN11mpz_managerILb0EE21power_of_two_multipleERK3mpz(ptr noundef nonnull align 8 dereferenceable(600) %21, ptr noundef nonnull align 8 dereferenceable(16) %23)
  store i32 %24, ptr %5, align 4, !tbaa !12
  %25 = load i32, ptr %5, align 4, !tbaa !12
  %26 = load ptr, ptr %4, align 8, !tbaa !3
  %27 = getelementptr inbounds nuw %class.mpbq, ptr %26, i32 0, i32 1
  %28 = load i32, ptr %27, align 8, !tbaa !14
  %29 = icmp ugt i32 %25, %28
  br i1 %29, label %30, label %34

30:                                               ; preds = %19
  %31 = load ptr, ptr %4, align 8, !tbaa !3
  %32 = getelementptr inbounds nuw %class.mpbq, ptr %31, i32 0, i32 1
  %33 = load i32, ptr %32, align 8, !tbaa !14
  store i32 %33, ptr %5, align 4, !tbaa !12
  br label %34

34:                                               ; preds = %30, %19
  %35 = getelementptr inbounds nuw %class.mpbq_manager, ptr %6, i32 0, i32 0
  %36 = load ptr, ptr %35, align 8, !tbaa !26
  %37 = load ptr, ptr %4, align 8, !tbaa !3
  %38 = getelementptr inbounds nuw %class.mpbq, ptr %37, i32 0, i32 0
  %39 = load i32, ptr %5, align 4, !tbaa !12
  call void @_ZN11mpz_managerILb0EE13machine_div2kER3mpzj(ptr noundef nonnull align 8 dereferenceable(600) %36, ptr noundef nonnull align 8 dereferenceable(16) %38, i32 noundef %39)
  %40 = load i32, ptr %5, align 4, !tbaa !12
  %41 = load ptr, ptr %4, align 8, !tbaa !3
  %42 = getelementptr inbounds nuw %class.mpbq, ptr %41, i32 0, i32 1
  %43 = load i32, ptr %42, align 8, !tbaa !14
  %44 = sub i32 %43, %40
  store i32 %44, ptr %42, align 8, !tbaa !14
  call void @llvm.lifetime.end.p0(i64 4, ptr %5) #3
  br label %45

45:                                               ; preds = %34, %16, %11
  ret void
}

; Function Attrs: mustprogress uwtable
define hidden void @_ZN12mpbq_manager3mulERK4mpbqRK3mpzRS0_(ptr noundef nonnull align 8 dereferenceable(208) %0, ptr noundef nonnull align 8 dereferenceable(20) %1, ptr noundef nonnull align 8 dereferenceable(16) %2, ptr noundef nonnull align 8 dereferenceable(20) %3) #4 align 2 {
  %5 = alloca ptr, align 8
  %6 = alloca ptr, align 8
  %7 = alloca ptr, align 8
  %8 = alloca ptr, align 8
  store ptr %0, ptr %5, align 8, !tbaa !20
  store ptr %1, ptr %6, align 8, !tbaa !3
  store ptr %2, ptr %7, align 8, !tbaa !10
  store ptr %3, ptr %8, align 8, !tbaa !3
  %9 = load ptr, ptr %5, align 8
  %10 = getelementptr inbounds nuw %class.mpbq_manager, ptr %9, i32 0, i32 0
  %11 = load ptr, ptr %10, align 8, !tbaa !26
  %12 = load ptr, ptr %6, align 8, !tbaa !3
  %13 = getelementptr inbounds nuw %class.mpbq, ptr %12, i32 0, i32 0
  %14 = load ptr, ptr %7, align 8, !tbaa !10
  %15 = load ptr, ptr %8, align 8, !tbaa !3
  %16 = getelementptr inbounds nuw %class.mpbq, ptr %15, i32 0, i32 0
  call void @_ZN11mpz_managerILb0EE3mulERK3mpzS3_RS1_(ptr noundef nonnull align 8 dereferenceable(600) %11, ptr noundef nonnull align 8 dereferenceable(16) %13, ptr noundef nonnull align 8 dereferenceable(16) %14, ptr noundef nonnull align 8 dereferenceable(16) %16)
  %17 = load ptr, ptr %6, align 8, !tbaa !3
  %18 = getelementptr inbounds nuw %class.mpbq, ptr %17, i32 0, i32 1
  %19 = load i32, ptr %18, align 8, !tbaa !14
  %20 = load ptr, ptr %8, align 8, !tbaa !3
  %21 = getelementptr inbounds nuw %class.mpbq, ptr %20, i32 0, i32 1
  store i32 %19, ptr %21, align 8, !tbaa !14
  %22 = load ptr, ptr %8, align 8, !tbaa !3
  call void @_ZN12mpbq_manager9normalizeER4mpbq(ptr noundef nonnull align 8 dereferenceable(208) %9, ptr noundef nonnull align 8 dereferenceable(20) %22)
  ret void
}