; Function Attrs: mustprogress uwtable
define hidden void @_ZN12mpbq_manager3mulERK4mpbqRK3mpzRS0_(ptr noundef nonnull readonly align 8 captures(none) dereferenceable(208) %0, ptr noundef nonnull align 8 dereferenceable(20) %1, ptr noundef nonnull align 8 dereferenceable(16) %2, ptr noundef nonnull align 8 dereferenceable(20) %3) local_unnamed_addr #3 align 2 {
  %5 = load ptr, ptr %0, align 8, !tbaa !26
  tail call void @_ZN11mpz_managerILb0EE3mulERK3mpzS3_RS1_(ptr noundef nonnull align 8 dereferenceable(600) %5, ptr noundef nonnull align 8 dereferenceable(16) %1, ptr noundef nonnull align 8 dereferenceable(16) %2, ptr noundef nonnull align 8 dereferenceable(16) %3)
  %6 = getelementptr inbounds nuw i8, ptr %1, i64 16
  %7 = load i32, ptr %6, align 8, !tbaa !13
  %8 = getelementptr inbounds nuw i8, ptr %3, i64 16
  store i32 %7, ptr %8, align 8, !tbaa !13
  %9 = icmp eq i32 %7, 0
  br i1 %9, label %_ZN12mpbq_manager9normalizeER4mpbq.exit, label %10

10:                                               ; preds = %4
  %11 = load i32, ptr %3, align 8, !tbaa !3
  %12 = icmp eq i32 %11, 0
  br i1 %12, label %.sink.split.i, label %13

13:                                               ; preds = %10
  %14 = load ptr, ptr %0, align 8, !tbaa !26
  %15 = tail call noundef i32 @_ZN11mpz_managerILb0EE21power_of_two_multipleERK3mpz(ptr noundef nonnull align 8 dereferenceable(600) %14, ptr noundef nonnull align 8 dereferenceable(20) %3)
  %16 = load i32, ptr %8, align 8, !tbaa !13
  %spec.select.i = tail call i32 @llvm.umin.i32(i32 %15, i32 %16)
  %17 = load ptr, ptr %0, align 8, !tbaa !26
  tail call void @_ZN11mpz_managerILb0EE13machine_div2kER3mpzj(ptr noundef nonnull align 8 dereferenceable(600) %17, ptr noundef nonnull align 8 dereferenceable(20) %3, i32 noundef %spec.select.i)
  %18 = load i32, ptr %8, align 8, !tbaa !13
  %19 = sub i32 %18, %spec.select.i
  br label %.sink.split.i

.sink.split.i:                                    ; preds = %13, %10
  %.sink.i = phi i32 [ %19, %13 ], [ 0, %10 ]
  store i32 %.sink.i, ptr %8, align 8, !tbaa !13
  br label %_ZN12mpbq_manager9normalizeER4mpbq.exit

_ZN12mpbq_manager9normalizeER4mpbq.exit:          ; preds = %4, %.sink.split.i
  ret void
}